target datalayout = "e-m:e-p270:32:32-p271:32:32-p272:64:64-i64:64-i128:128-f80:128-n8:16:32:64-S128"
target triple = "x86_64-pc-linux-gnu"

@Wlc_PrsFindName.Buffer = internal global [10000 x i8] zeroinitializer, align 16

; Function Attrs: nounwind uwtable
define internal i32 @Wlc_PrsIsChar(ptr noundef %0) #0 {
  %2 = alloca ptr, align 8
  store ptr %0, ptr %2, align 8
  %3 = load ptr, ptr %2, align 8
  %4 = getelementptr inbounds i8, ptr %3, i64 0
  %5 = load i8, ptr %4, align 1
  %6 = sext i8 %5 to i32
  %7 = icmp sge i32 %6, 97
  br i1 %7, label %8, label %14

8:                                                ; preds = %1
  %9 = load ptr, ptr %2, align 8
  %10 = getelementptr inbounds i8, ptr %9, i64 0
  %11 = load i8, ptr %10, align 1
  %12 = sext i8 %11 to i32
  %13 = icmp sle i32 %12, 122
  br i1 %13, label %56, label %14

14:                                               ; preds = %8, %1
  %15 = load ptr, ptr %2, align 8
  %16 = getelementptr inbounds i8, ptr %15, i64 0
  %17 = load i8, ptr %16, align 1
  %18 = sext i8 %17 to i32
  %19 = icmp sge i32 %18, 65
  br i1 %19, label %20, label %26

20:                                               ; preds = %14
  %21 = load ptr, ptr %2, align 8
  %22 = getelementptr inbounds i8, ptr %21, i64 0
  %23 = load i8, ptr %22, align 1
  %24 = sext i8 %23 to i32
  %25 = icmp sle i32 %24, 90
  br i1 %25, label %56, label %26

26:                                               ; preds = %20, %14
  %27 = load ptr, ptr %2, align 8
  %28 = getelementptr inbounds i8, ptr %27, i64 0
  %29 = load i8, ptr %28, align 1
  %30 = sext i8 %29 to i32
  %31 = icmp sge i32 %30, 48
  br i1 %31, label %32, label %38

32:                                               ; preds = %26
  %33 = load ptr, ptr %2, align 8
  %34 = getelementptr inbounds i8, ptr %33, i64 0
  %35 = load i8, ptr %34, align 1
  %36 = sext i8 %35 to i32
  %37 = icmp sle i32 %36, 57
  br i1 %37, label %56, label %38

38:                                               ; preds = %32, %26
  %39 = load ptr, ptr %2, align 8
  %40 = getelementptr inbounds i8, ptr %39, i64 0
  %41 = load i8, ptr %40, align 1
  %42 = sext i8 %41 to i32
  %43 = icmp eq i32 %42, 95
  br i1 %43, label %56, label %44

44:                                               ; preds = %38
  %45 = load ptr, ptr %2, align 8
  %46 = getelementptr inbounds i8, ptr %45, i64 0
  %47 = load i8, ptr %46, align 1
  %48 = sext i8 %47 to i32
  %49 = icmp eq i32 %48, 36
  br i1 %49, label %56, label %50

50:                                               ; preds = %44
  %51 = load ptr, ptr %2, align 8
  %52 = getelementptr inbounds i8, ptr %51, i64 0
  %53 = load i8, ptr %52, align 1
  %54 = sext i8 %53 to i32
  %55 = icmp eq i32 %54, 92
  br label %56

56:                                               ; preds = %50, %44, %38, %32, %20, %8
  %57 = phi i1 [ true, %44 ], [ true, %38 ], [ true, %32 ], [ true, %20 ], [ true, %8 ], [ %55, %50 ]
  %58 = zext i1 %57 to i32
  ret i32 %58
}

; Function Attrs: nounwind uwtable
define internal ptr @Wlc_PrsSkipSpaces(ptr noundef %0) #0 {
  %2 = alloca ptr, align 8
  store ptr %0, ptr %2, align 8
  br label %3

3:                                                ; preds = %15, %1
  %4 = load ptr, ptr %2, align 8
  %5 = load i8, ptr %4, align 1
  %6 = sext i8 %5 to i32
  %7 = icmp ne i32 %6, 0
  br i1 %7, label %8, label %13

8:                                                ; preds = %3
  %9 = load ptr, ptr %2, align 8
  %10 = load i8, ptr %9, align 1
  %11 = sext i8 %10 to i32
  %12 = icmp eq i32 %11, 32
  br label %13

13:                                               ; preds = %8, %3
  %14 = phi i1 [ false, %3 ], [ %12, %8 ]
  br i1 %14, label %15, label %18

15:                                               ; preds = %13
  %16 = load ptr, ptr %2, align 8
  %17 = getelementptr inbounds i8, ptr %16, i32 1
  store ptr %17, ptr %2, align 8
  br label %3, !llvm.loop !19

18:                                               ; preds = %13
  %19 = load ptr, ptr %2, align 8
  ret ptr %19
}

; Function Attrs: nounwind uwtable
define internal ptr @Wlc_PrsFindName(ptr noundef %0, ptr noundef %1) #0 {
  %3 = alloca ptr, align 8
  %4 = alloca ptr, align 8
  %5 = alloca ptr, align 8
  %6 = alloca ptr, align 8
  %7 = alloca i32, align 4
  %8 = alloca i32, align 4
  store ptr %0, ptr %4, align 8
  store ptr %1, ptr %5, align 8
  %9 = load ptr, ptr %5, align 8
  store ptr @Wlc_PrsFindName.Buffer, ptr %9, align 8
  store ptr @Wlc_PrsFindName.Buffer, ptr %6, align 8
  store i32 1, ptr %7, align 4
  store i32 0, ptr %8, align 4
  %10 = load ptr, ptr %4, align 8
  %11 = call ptr @Wlc_PrsSkipSpaces(ptr noundef %10)
  store ptr %11, ptr %4, align 8
  %12 = load ptr, ptr %4, align 8
  %13 = call i32 @Wlc_PrsIsChar(ptr noundef %12)
  %14 = icmp ne i32 %13, 0
  br i1 %14, label %16, label %15

15:                                               ; preds = %2
  store ptr null, ptr %3, align 8
  br label %62

16:                                               ; preds = %2
  br label %17

17:                                               ; preds = %53, %16
  %18 = load ptr, ptr %4, align 8
  %19 = load i8, ptr %18, align 1
  %20 = icmp ne i8 %19, 0
  br i1 %20, label %21, label %59

21:                                               ; preds = %17
  %22 = load i32, ptr %7, align 4
  %23 = icmp ne i32 %22, 0
  br i1 %23, label %24, label %29

24:                                               ; preds = %21
  %25 = load ptr, ptr %4, align 8
  %26 = call i32 @Wlc_PrsIsChar(ptr noundef %25)
  %27 = icmp ne i32 %26, 0
  br i1 %27, label %29, label %28

28:                                               ; preds = %24
  br label %59

29:                                               ; preds = %24, %21
  %30 = load ptr, ptr %4, align 8
  %31 = load i8, ptr %30, align 1
  %32 = sext i8 %31 to i32
  %33 = icmp eq i32 %32, 92
  br i1 %33, label %34, label %37

34:                                               ; preds = %29
  %35 = load i32, ptr %8, align 4
  %36 = add nsw i32 %35, 1
  store i32 %36, ptr %8, align 4
  store i32 0, ptr %7, align 4
  br label %53

37:                                               ; preds = %29
  %38 = load i32, ptr %7, align 4
  %39 = icmp ne i32 %38, 0
  br i1 %39, label %52, label %40

40:                                               ; preds = %37
  %41 = load ptr, ptr %4, align 8
  %42 = load i8, ptr %41, align 1
  %43 = sext i8 %42 to i32
  %44 = icmp eq i32 %43, 32
  br i1 %44, label %45, label %52

45:                                               ; preds = %40
  %46 = load i32, ptr %8, align 4
  %47 = add nsw i32 %46, -1
  store i32 %47, ptr %8, align 4
  %48 = load i32, ptr %8, align 4
  %49 = icmp ne i32 %48, 0
  br i1 %49, label %51, label %50

50:                                               ; preds = %45
  store i32 1, ptr %7, align 4
  br label %51

51:                                               ; preds = %50, %45
  br label %52

52:                                               ; preds = %51, %40, %37
  br label %53

53:                                               ; preds = %52, %34
  %54 = load ptr, ptr %4, align 8
  %55 = getelementptr inbounds i8, ptr %54, i32 1
  store ptr %55, ptr %4, align 8
  %56 = load i8, ptr %54, align 1
  %57 = load ptr, ptr %6, align 8
  %58 = getelementptr inbounds i8, ptr %57, i32 1
  store ptr %58, ptr %6, align 8
  store i8 %56, ptr %57, align 1
  br label %17, !llvm.loop !29

59:                                               ; preds = %28, %17
  %60 = load ptr, ptr %6, align 8
  store i8 0, ptr %60, align 1
  %61 = load ptr, ptr %4, align 8
  store ptr %61, ptr %3, align 8
  br label %62

62:                                               ; preds = %59, %15
  %63 = load ptr, ptr %3, align 8
  ret ptr %63
}