; Function Attrs: nofree norecurse nosync nounwind memory(write, argmem: readwrite, inaccessiblemem: none) uwtable
define internal fastcc noundef ptr @Wlc_PrsFindName(ptr noundef readonly %0, ptr noundef nonnull writeonly captures(none) initializes((0, 8)) %1) unnamed_addr #13 {
  store ptr @Wlc_PrsFindName.Buffer, ptr %1, align 8
  br label %3

3:                                                ; preds = %3, %2
  %.0.i = phi ptr [ %0, %2 ], [ %5, %3 ]
  %4 = load i8, ptr %.0.i, align 1
  %cond.i = icmp eq i8 %4, 32
  %5 = getelementptr inbounds nuw i8, ptr %.0.i, i64 1
  br i1 %cond.i, label %3, label %Wlc_PrsSkipSpaces.exit, !llvm.loop !12

Wlc_PrsSkipSpaces.exit:                           ; preds = %3
  %6 = and i8 %4, -33
  %7 = add i8 %6, -65
  %or.cond1.i = icmp ult i8 %7, 26
  %8 = add i8 %4, -48
  %or.cond13.i = icmp ult i8 %8, 10
  %or.cond2.i = or i1 %or.cond13.i, %or.cond1.i
  br i1 %or.cond2.i, label %.critedge, label %9

9:                                                ; preds = %Wlc_PrsSkipSpaces.exit
  switch i8 %4, label %Wlc_PrsIsChar.exit [
    i8 95, label %.lr.ph.preheader
    i8 36, label %.lr.ph.preheader
    i8 92, label %.lr.ph.preheader
  ]

.critedge:                                        ; preds = %Wlc_PrsSkipSpaces.exit
  %.not2436 = icmp eq i8 %4, 0
  br i1 %.not2436, label %._crit_edge, label %.lr.ph.preheader

.lr.ph.preheader:                                 ; preds = %9, %9, %9, %.critedge
  br label %.lr.ph

.lr.ph:                                           ; preds = %.lr.ph.preheader, %21
  %10 = phi i8 [ %24, %21 ], [ %4, %.lr.ph.preheader ]
  %.040 = phi i32 [ %.1, %21 ], [ 0, %.lr.ph.preheader ]
  %.01639 = phi i32 [ %.117, %21 ], [ 1, %.lr.ph.preheader ]
  %.01838 = phi ptr [ %23, %21 ], [ @Wlc_PrsFindName.Buffer, %.lr.ph.preheader ]
  %.02037 = phi ptr [ %22, %21 ], [ %.0.i, %.lr.ph.preheader ]
  %.not25 = icmp eq i32 %.01639, 0
  br i1 %.not25, label %.thread, label %11

11:                                               ; preds = %.lr.ph
  %12 = and i8 %10, -33
  %13 = add i8 %12, -65
  %or.cond1.i29 = icmp ult i8 %13, 26
  %14 = add i8 %10, -48
  %or.cond13.i30 = icmp ult i8 %14, 10
  %or.cond2.i31 = or i1 %or.cond13.i30, %or.cond1.i29
  br i1 %or.cond2.i31, label %Wlc_PrsIsChar.exit32.thread, label %15

15:                                               ; preds = %11
  switch i8 %10, label %._crit_edge [
    i8 36, label %21
    i8 95, label %21
    i8 92, label %17
  ]

Wlc_PrsIsChar.exit32.thread:                      ; preds = %11
  %16 = icmp eq i8 %10, 92
  br i1 %16, label %17, label %21

.thread:                                          ; preds = %.lr.ph
  switch i8 %10, label %21 [
    i8 92, label %17
    i8 32, label %19
  ]

17:                                               ; preds = %15, %.thread, %Wlc_PrsIsChar.exit32.thread
  %18 = add nsw i32 %.040, 1
  br label %21

19:                                               ; preds = %.thread
  %20 = add nsw i32 %.040, -1
  %.not27 = icmp eq i32 %20, 0
  %spec.select = zext i1 %.not27 to i32
  br label %21

21:                                               ; preds = %Wlc_PrsIsChar.exit32.thread, %15, %15, %.thread, %19, %17
  %.117 = phi i32 [ 0, %17 ], [ %spec.select, %19 ], [ 0, %.thread ], [ 1, %15 ], [ 1, %15 ], [ 1, %Wlc_PrsIsChar.exit32.thread ]
  %.1 = phi i32 [ %18, %17 ], [ %20, %19 ], [ %.040, %.thread ], [ %.040, %15 ], [ %.040, %15 ], [ %.040, %Wlc_PrsIsChar.exit32.thread ]
  %22 = getelementptr inbounds nuw i8, ptr %.02037, i64 1
  %23 = getelementptr inbounds nuw i8, ptr %.01838, i64 1
  store i8 %10, ptr %.01838, align 1
  %24 = load i8, ptr %22, align 1
  %.not24 = icmp eq i8 %24, 0
  br i1 %.not24, label %._crit_edge, label %.lr.ph, !llvm.loop !23

._crit_edge:                                      ; preds = %21, %15, %.critedge
  %.020.lcssa = phi ptr [ %.0.i, %.critedge ], [ %.02037, %15 ], [ %22, %21 ]
  %.018.lcssa = phi ptr [ @Wlc_PrsFindName.Buffer, %.critedge ], [ %.01838, %15 ], [ %23, %21 ]
  store i8 0, ptr %.018.lcssa, align 1
  br label %Wlc_PrsIsChar.exit

Wlc_PrsIsChar.exit:                               ; preds = %9, %._crit_edge
  %.019 = phi ptr [ %.020.lcssa, %._crit_edge ], [ null, %9 ]
  ret ptr %.019
}